target datalayout = "e-m:e-p270:32:32-p271:32:32-p272:64:64-i64:64-i128:128-f80:128-n8:16:32:64-S128"
target triple = "x86_64-pc-linux-gnu"

%struct.SDL_GUID = type { [16 x i8] }
%struct.SDL_VirtualJoystickDesc = type { i32, i16, i16, i16, i16, i16, i16, i16, i16, i16, i16, [2 x i16], i32, i32, ptr, ptr, ptr, ptr, ptr, ptr, ptr, ptr, ptr, ptr, ptr, ptr }
%struct.joystick_hwdata = type { i32, i8, ptr, i32, %struct.SDL_GUID, %struct.SDL_VirtualJoystickDesc, i32, ptr, ptr, ptr, ptr, ptr, ptr, i8, i32, i32, ptr, ptr, ptr }

@g_VJoys = internal global ptr null, align 8

; Function Attrs: nounwind uwtable
define internal i32 @VIRTUAL_JoystickGetCount() #0 {
  %1 = alloca ptr, align 8
  %2 = alloca i32, align 4
  call void @llvm.lifetime.start.p0(i64 8, ptr %1) #7
  call void @llvm.lifetime.start.p0(i64 4, ptr %2) #7
  store i32 0, ptr %2, align 4
  call void @SDL_AssertJoysticksLocked()
  %3 = load ptr, ptr @g_VJoys, align 8
  store ptr %3, ptr %1, align 8
  br label %4

4:                                                ; preds = %10, %0
  %5 = load ptr, ptr %1, align 8
  %6 = icmp ne ptr %5, null
  br i1 %6, label %7, label %14

7:                                                ; preds = %4
  %8 = load i32, ptr %2, align 4
  %9 = add nsw i32 %8, 1
  store i32 %9, ptr %2, align 4
  br label %10

10:                                               ; preds = %7
  %11 = load ptr, ptr %1, align 8
  %12 = getelementptr inbounds nuw %struct.joystick_hwdata, ptr %11, i32 0, i32 18
  %13 = load ptr, ptr %12, align 8
  store ptr %13, ptr %1, align 8
  br label %4, !llvm.loop !14

14:                                               ; preds = %4
  %15 = load i32, ptr %2, align 4
  call void @llvm.lifetime.end.p0(i64 4, ptr %2) #7
  call void @llvm.lifetime.end.p0(i64 8, ptr %1) #7
  ret i32 %15
}