; Function Attrs: nounwind uwtable
define internal i32 @VIRTUAL_JoystickGetCount() #0 {
  tail call void @SDL_AssertJoysticksLocked() #8
  %.034 = load ptr, ptr @g_VJoys, align 8
  %.not5 = icmp eq ptr %.034, null
  br i1 %.not5, label %._crit_edge, label %.lr.ph

.lr.ph:                                           ; preds = %0, %.lr.ph
  %.037 = phi ptr [ %.03, %.lr.ph ], [ %.034, %0 ]
  %.06 = phi i32 [ %1, %.lr.ph ], [ 0, %0 ]
  %1 = add nuw nsw i32 %.06, 1
  %2 = getelementptr inbounds nuw i8, ptr %.037, i64 264
  %.03 = load ptr, ptr %2, align 8
  %.not = icmp eq ptr %.03, null
  br i1 %.not, label %._crit_edge, label %.lr.ph, !llvm.loop !12

._crit_edge:                                      ; preds = %.lr.ph, %0
  %.0.lcssa = phi i32 [ 0, %0 ], [ %1, %.lr.ph ]
  ret i32 %.0.lcssa
}